---
triple:          'arm64-apple-darwin'
binary-path:     timber
relocations:
  - { offsetInCU: 0x3F, offset: 0x3F, size: 0x8, addend: 0x0, symName: _branches, symObjAddr: 0x74008, symBinAddr: 0x10000C000, symSize: 0x0 }
  - { offsetInCU: 0x114C8, offset: 0x114C8, size: 0x8, addend: 0x0, symName: __ZNSt3__124__put_character_sequenceB7v160006IcNS_11char_traitsIcEEEERNS_13basic_ostreamIT_T0_EES7_PKS4_m, symObjAddr: 0x3F18, symBinAddr: 0x100006914, symSize: 0x1EC }
  - { offsetInCU: 0x1374B, offset: 0x1374B, size: 0x8, addend: 0x0, symName: __ZNSt3__1lsB7v160006INS_11char_traitsIcEEEERNS_13basic_ostreamIcT_EES6_PKc, symObjAddr: 0x2BEC, symBinAddr: 0x1000055E8, symSize: 0x48 }
  - { offsetInCU: 0x170DC, offset: 0x170DC, size: 0x8, addend: 0x0, symName: __ZNSt3__118__debug_db_erase_cB7v160006INS_12basic_stringIjNS_11char_traitsIjEENS_9allocatorIjEEEEEEvPT_, symObjAddr: 0x2EB4, symBinAddr: 0x1000058B0, symSize: 0x10 }
  - { offsetInCU: 0x1710D, offset: 0x1710D, size: 0x8, addend: 0x0, symName: __ZNSt3__119__libcpp_deallocateB7v160006EPvmm, symObjAddr: 0x3030, symBinAddr: 0x100005A2C, symSize: 0x60 }
  - { offsetInCU: 0x17172, offset: 0x17172, size: 0x8, addend: 0x0, symName: __ZNSt3__124__is_overaligned_for_newB7v160006Em, symObjAddr: 0x3090, symBinAddr: 0x100005A8C, symSize: 0x20 }
  - { offsetInCU: 0x171A0, offset: 0x171A0, size: 0x8, addend: 0x0, symName: __ZNSt3__127__do_deallocate_handle_sizeB7v160006IJSt11align_val_tEEEvPvmDpT_, symObjAddr: 0x30B0, symBinAddr: 0x100005AAC, symSize: 0x30 }
  - { offsetInCU: 0x171F3, offset: 0x171F3, size: 0x8, addend: 0x0, symName: __ZNSt3__127__do_deallocate_handle_sizeB7v160006IJEEEvPvmDpT_, symObjAddr: 0x30E0, symBinAddr: 0x100005ADC, symSize: 0x28 }
  - { offsetInCU: 0x17231, offset: 0x17231, size: 0x8, addend: 0x0, symName: __ZNSt3__124__libcpp_operator_deleteB7v160006IJPvSt11align_val_tEEEvDpT_, symObjAddr: 0x3108, symBinAddr: 0x100005B04, symSize: 0x2C }
  - { offsetInCU: 0x1727A, offset: 0x1727A, size: 0x8, addend: 0x0, symName: __ZNSt3__124__libcpp_operator_deleteB7v160006IJPvEEEvDpT_, symObjAddr: 0x3134, symBinAddr: 0x100005B30, symSize: 0x24 }
  - { offsetInCU: 0x172AF, offset: 0x172AF, size: 0x8, addend: 0x0, symName: __ZNSt3__119__debug_db_insert_cB7v160006INS_12basic_stringIcNS_11char_traitsIcEENS_9allocatorIcEEEEEEvPT_, symObjAddr: 0x3298, symBinAddr: 0x100005C94, symSize: 0x10 }
  - { offsetInCU: 0x172E0, offset: 0x172E0, size: 0x8, addend: 0x0, symName: __ZNSt3__118__constexpr_strlenB7v160006EPKc, symObjAddr: 0x3364, symBinAddr: 0x100005D60, symSize: 0x24 }
  - { offsetInCU: 0x1730C, offset: 0x1730C, size: 0x8, addend: 0x0, symName: __ZNSt3__118__debug_db_erase_cB7v160006INS_6vectorIN2sf6VertexENS_9allocatorIS3_EEEEEEvPT_, symObjAddr: 0x382C, symBinAddr: 0x100006228, symSize: 0x10 }
  - { offsetInCU: 0x1733D, offset: 0x1733D, size: 0x8, addend: 0x0, symName: __ZNSt3__112__to_addressB7v160006IN2sf6VertexEEEPT_S4_, symObjAddr: 0x3970, symBinAddr: 0x10000636C, symSize: 0x14 }
  - { offsetInCU: 0x17372, offset: 0x17372, size: 0x8, addend: 0x0, symName: __ZNSt3__110destroy_atB7v160006IN2sf6VertexELi0EEEvPT_, symObjAddr: 0x3A38, symBinAddr: 0x100006434, symSize: 0x24 }
  - { offsetInCU: 0x173A9, offset: 0x173A9, size: 0x8, addend: 0x0, symName: __ZNSt3__112__destroy_atB7v160006IN2sf6VertexELi0EEEvPT_, symObjAddr: 0x3A5C, symBinAddr: 0x100006458, symSize: 0x10 }
  - { offsetInCU: 0x173E0, offset: 0x173E0, size: 0x8, addend: 0x0, symName: __ZNSt3__116__pad_and_outputB7v160006IcNS_11char_traitsIcEEEENS_19ostreambuf_iteratorIT_T0_EES6_PKS4_S8_S8_RNS_8ios_baseES4_, symObjAddr: 0x4120, symBinAddr: 0x100006B1C, symSize: 0x240 }
  - { offsetInCU: 0x174AF, offset: 0x174AF, size: 0x8, addend: 0x0, symName: __ZNSt3__112__to_addressB7v160006IcEEPT_S2_, symObjAddr: 0x4598, symBinAddr: 0x100006F94, symSize: 0x14 }
  - { offsetInCU: 0x174E4, offset: 0x174E4, size: 0x8, addend: 0x0, symName: __ZNSt3__19use_facetB7v160006INS_5ctypeIcEEEERKT_RKNS_6localeE, symObjAddr: 0x4810, symBinAddr: 0x10000720C, symSize: 0x2C }
  - { offsetInCU: 0x1A82D, offset: 0x1A82D, size: 0x8, addend: 0x0, symName: _clouds, symObjAddr: 0x746C8, symBinAddr: 0x10000C6C0, symSize: 0x0 }
  - { offsetInCU: 0x1A84E, offset: 0x1A84E, size: 0x8, addend: 0x0, symName: _cloudActive, symObjAddr: 0x74A28, symBinAddr: 0x10000CA20, symSize: 0x0 }
  - { offsetInCU: 0x1A86F, offset: 0x1A86F, size: 0x8, addend: 0x0, symName: _cloudSpeed, symObjAddr: 0x74A2C, symBinAddr: 0x10000CA24, symSize: 0x0 }
  - { offsetInCU: 0x1A890, offset: 0x1A890, size: 0x8, addend: 0x0, symName: _branchPositions, symObjAddr: 0x74A38, symBinAddr: 0x10000CA30, symSize: 0x0 }
  - { offsetInCU: 0x1CD15, offset: 0x1CD15, size: 0x8, addend: 0x0, symName: __ZN2sf6SpriteD1Ev, symObjAddr: 0x0, symBinAddr: 0x1000029FC, symSize: 0x2C }
  - { offsetInCU: 0x1CD41, offset: 0x1CD41, size: 0x8, addend: 0x0, symName: _main, symObjAddr: 0x2C, symBinAddr: 0x100002A28, symSize: 0x2890 }
  - { offsetInCU: 0x1D265, offset: 0x1D265, size: 0x8, addend: 0x0, symName: __ZN2sf15ContextSettingsC1Ejjjjjjb, symObjAddr: 0x28BC, symBinAddr: 0x1000052B8, symSize: 0x70 }
  - { offsetInCU: 0x1D2F1, offset: 0x1D2F1, size: 0x8, addend: 0x0, symName: __ZN2sf6StringD1Ev, symObjAddr: 0x292C, symBinAddr: 0x100005328, symSize: 0x2C }
  - { offsetInCU: 0x1D322, offset: 0x1D322, size: 0x8, addend: 0x0, symName: __ZNSt3__112basic_stringIcNS_11char_traitsIcEENS_9allocatorIcEEEC1B7v160006IDnEEPKc, symObjAddr: 0x2958, symBinAddr: 0x100005354, symSize: 0x34 }
  - { offsetInCU: 0x1D360, offset: 0x1D360, size: 0x8, addend: 0x0, symName: __ZN2sf4RectIiEC1Ev, symObjAddr: 0x298C, symBinAddr: 0x100005388, symSize: 0x2C }
  - { offsetInCU: 0x1D38C, offset: 0x1D38C, size: 0x8, addend: 0x0, symName: __ZN2sf7Vector2IfEC1Eff, symObjAddr: 0x29B8, symBinAddr: 0x1000053B4, symSize: 0x3C }
  - { offsetInCU: 0x1D3D3, offset: 0x1D3D3, size: 0x8, addend: 0x0, symName: __Z14updateBranchesi, symObjAddr: 0x29F4, symBinAddr: 0x1000053F0, symSize: 0xF4 }
  - { offsetInCU: 0x1D50E, offset: 0x1D50E, size: 0x8, addend: 0x0, symName: __ZNSt3__118basic_stringstreamIcNS_11char_traitsIcEENS_9allocatorIcEEEC1B7v160006Ev, symObjAddr: 0x2AE8, symBinAddr: 0x1000054E4, symSize: 0x104 }
  - { offsetInCU: 0x1D538, offset: 0x1D538, size: 0x8, addend: 0x0, symName: __ZNKSt3__118basic_stringstreamIcNS_11char_traitsIcEENS_9allocatorIcEEE3strB7v160006Ev, symObjAddr: 0x2C34, symBinAddr: 0x100005630, symSize: 0x30 }
  - { offsetInCU: 0x1D563, offset: 0x1D563, size: 0x8, addend: 0x0, symName: __ZNSt3__118basic_stringstreamIcNS_11char_traitsIcEENS_9allocatorIcEEED1Ev, symObjAddr: 0x2C64, symBinAddr: 0x100005660, symSize: 0x40 }
  - { offsetInCU: 0x1D5C2, offset: 0x1D5C2, size: 0x8, addend: 0x0, symName: __ZN2sf14RectangleShapeD1Ev, symObjAddr: 0x2CA4, symBinAddr: 0x1000056A0, symSize: 0x2C }
  - { offsetInCU: 0x1DB1A, offset: 0x1DB1A, size: 0x8, addend: 0x0, symName: __ZN2sf4TextD1Ev, symObjAddr: 0x2CD0, symBinAddr: 0x1000056CC, symSize: 0x2C }
  - { offsetInCU: 0x1DB46, offset: 0x1DB46, size: 0x8, addend: 0x0, symName: __ZN2sf6SpriteD2Ev, symObjAddr: 0x2CFC, symBinAddr: 0x1000056F8, symSize: 0x38 }
  - { offsetInCU: 0x1DB72, offset: 0x1DB72, size: 0x8, addend: 0x0, symName: __ZThn8_N2sf6SpriteD1Ev, symObjAddr: 0x2D34, symBinAddr: 0x100005730, symSize: 0x1C }
  - { offsetInCU: 0x1DB88, offset: 0x1DB88, size: 0x8, addend: 0x0, symName: __ZN2sf8DrawableD2Ev, symObjAddr: 0x2D50, symBinAddr: 0x10000574C, symSize: 0x14 }
  - { offsetInCU: 0x1DBB2, offset: 0x1DBB2, size: 0x8, addend: 0x0, symName: __ZN2sf15ContextSettingsC2Ejjjjjjb, symObjAddr: 0x2D64, symBinAddr: 0x100005760, symSize: 0x74 }
  - { offsetInCU: 0x1DC3E, offset: 0x1DC3E, size: 0x8, addend: 0x0, symName: __ZN2sf6StringD2Ev, symObjAddr: 0x2DD8, symBinAddr: 0x1000057D4, symSize: 0x2C }
  - { offsetInCU: 0x1DC6A, offset: 0x1DC6A, size: 0x8, addend: 0x0, symName: __ZNSt3__112basic_stringIjNS_11char_traitsIjEENS_9allocatorIjEEED1Ev, symObjAddr: 0x2E04, symBinAddr: 0x100005800, symSize: 0x2C }
  - { offsetInCU: 0x1DC96, offset: 0x1DC96, size: 0x8, addend: 0x0, symName: __ZNSt3__112basic_stringIjNS_11char_traitsIjEENS_9allocatorIjEEED2Ev, symObjAddr: 0x2E30, symBinAddr: 0x10000582C, symSize: 0x84 }
  - { offsetInCU: 0x1DCC2, offset: 0x1DCC2, size: 0x8, addend: 0x0, symName: __ZNKSt3__112basic_stringIjNS_11char_traitsIjEENS_9allocatorIjEEE9__is_longB7v160006Ev, symObjAddr: 0x2ED0, symBinAddr: 0x1000058CC, symSize: 0x38 }
  - { offsetInCU: 0x1DCE8, offset: 0x1DCE8, size: 0x8, addend: 0x0, symName: __ZNSt3__116allocator_traitsINS_9allocatorIjEEE10deallocateB7v160006ERS2_Pjm, symObjAddr: 0x2F08, symBinAddr: 0x100005904, symSize: 0x34 }
  - { offsetInCU: 0x1DD2A, offset: 0x1DD2A, size: 0x8, addend: 0x0, symName: __ZNSt3__112basic_stringIjNS_11char_traitsIjEENS_9allocatorIjEEE7__allocB7v160006Ev, symObjAddr: 0x2F3C, symBinAddr: 0x100005938, symSize: 0x24 }
  - { offsetInCU: 0x1DD50, offset: 0x1DD50, size: 0x8, addend: 0x0, symName: __ZNSt3__112basic_stringIjNS_11char_traitsIjEENS_9allocatorIjEEE18__get_long_pointerB7v160006Ev, symObjAddr: 0x2F60, symBinAddr: 0x10000595C, symSize: 0x28 }
  - { offsetInCU: 0x1DD76, offset: 0x1DD76, size: 0x8, addend: 0x0, symName: __ZNKSt3__112basic_stringIjNS_11char_traitsIjEENS_9allocatorIjEEE14__get_long_capB7v160006Ev, symObjAddr: 0x2F88, symBinAddr: 0x100005984, symSize: 0x30 }
  - { offsetInCU: 0x1DD9C, offset: 0x1DD9C, size: 0x8, addend: 0x0, symName: __ZNKSt3__117__compressed_pairINS_12basic_stringIjNS_11char_traitsIjEENS_9allocatorIjEEE5__repES5_E5firstB7v160006Ev, symObjAddr: 0x2FB8, symBinAddr: 0x1000059B4, symSize: 0x24 }
  - { offsetInCU: 0x1DDC2, offset: 0x1DDC2, size: 0x8, addend: 0x0, symName: __ZNKSt3__122__compressed_pair_elemINS_12basic_stringIjNS_11char_traitsIjEENS_9allocatorIjEEE5__repELi0ELb0EE5__getB7v160006Ev, symObjAddr: 0x2FDC, symBinAddr: 0x1000059D8, symSize: 0x14 }
  - { offsetInCU: 0x1DDE8, offset: 0x1DDE8, size: 0x8, addend: 0x0, symName: __ZNSt3__19allocatorIjE10deallocateB7v160006EPjm, symObjAddr: 0x2FF0, symBinAddr: 0x1000059EC, symSize: 0x40 }
  - { offsetInCU: 0x1DE2A, offset: 0x1DE2A, size: 0x8, addend: 0x0, symName: __ZNSt3__117__compressed_pairINS_12basic_stringIjNS_11char_traitsIjEENS_9allocatorIjEEE5__repES5_E6secondB7v160006Ev, symObjAddr: 0x3158, symBinAddr: 0x100005B54, symSize: 0x24 }
  - { offsetInCU: 0x1DE50, offset: 0x1DE50, size: 0x8, addend: 0x0, symName: __ZNSt3__122__compressed_pair_elemINS_9allocatorIjEELi1ELb1EE5__getB7v160006Ev, symObjAddr: 0x317C, symBinAddr: 0x100005B78, symSize: 0x14 }
  - { offsetInCU: 0x1DE76, offset: 0x1DE76, size: 0x8, addend: 0x0, symName: __ZNSt3__117__compressed_pairINS_12basic_stringIjNS_11char_traitsIjEENS_9allocatorIjEEE5__repES5_E5firstB7v160006Ev, symObjAddr: 0x3190, symBinAddr: 0x100005B8C, symSize: 0x24 }
  - { offsetInCU: 0x1DE9C, offset: 0x1DE9C, size: 0x8, addend: 0x0, symName: __ZNSt3__122__compressed_pair_elemINS_12basic_stringIjNS_11char_traitsIjEENS_9allocatorIjEEE5__repELi0ELb0EE5__getB7v160006Ev, symObjAddr: 0x31B4, symBinAddr: 0x100005BB0, symSize: 0x14 }
  - { offsetInCU: 0x1DEC2, offset: 0x1DEC2, size: 0x8, addend: 0x0, symName: __ZNSt3__112basic_stringIcNS_11char_traitsIcEENS_9allocatorIcEEEC2B7v160006IDnEEPKc, symObjAddr: 0x31C8, symBinAddr: 0x100005BC4, symSize: 0x60 }
  - { offsetInCU: 0x1DF06, offset: 0x1DF06, size: 0x8, addend: 0x0, symName: __ZNSt3__117__compressed_pairINS_12basic_stringIcNS_11char_traitsIcEENS_9allocatorIcEEE5__repES5_EC1B7v160006INS_18__default_init_tagESA_EEOT_OT0_, symObjAddr: 0x3228, symBinAddr: 0x100005C24, symSize: 0x3C }
  - { offsetInCU: 0x1DF5E, offset: 0x1DF5E, size: 0x8, addend: 0x0, symName: __ZNSt3__111char_traitsIcE6lengthEPKc, symObjAddr: 0x3264, symBinAddr: 0x100005C60, symSize: 0x34 }
  - { offsetInCU: 0x1DF81, offset: 0x1DF81, size: 0x8, addend: 0x0, symName: __ZNSt3__117__compressed_pairINS_12basic_stringIcNS_11char_traitsIcEENS_9allocatorIcEEE5__repES5_EC2B7v160006INS_18__default_init_tagESA_EEOT_OT0_, symObjAddr: 0x32A8, symBinAddr: 0x100005CA4, symSize: 0x3C }
  - { offsetInCU: 0x1DFD9, offset: 0x1DFD9, size: 0x8, addend: 0x0, symName: __ZNSt3__122__compressed_pair_elemINS_12basic_stringIcNS_11char_traitsIcEENS_9allocatorIcEEE5__repELi0ELb0EEC2B7v160006ENS_18__default_init_tagE, symObjAddr: 0x32E4, symBinAddr: 0x100005CE0, symSize: 0x14 }
  - { offsetInCU: 0x1E00E, offset: 0x1E00E, size: 0x8, addend: 0x0, symName: __ZNSt3__122__compressed_pair_elemINS_9allocatorIcEELi1ELb1EEC2B7v160006ENS_18__default_init_tagE, symObjAddr: 0x32F8, symBinAddr: 0x100005CF4, symSize: 0x2C }
  - { offsetInCU: 0x1E043, offset: 0x1E043, size: 0x8, addend: 0x0, symName: __ZNSt3__19allocatorIcEC2B7v160006Ev, symObjAddr: 0x3324, symBinAddr: 0x100005D20, symSize: 0x2C }
  - { offsetInCU: 0x1E06D, offset: 0x1E06D, size: 0x8, addend: 0x0, symName: __ZNSt3__116__non_trivial_ifILb1ENS_9allocatorIcEEEC2B7v160006Ev, symObjAddr: 0x3350, symBinAddr: 0x100005D4C, symSize: 0x14 }
  - { offsetInCU: 0x1E097, offset: 0x1E097, size: 0x8, addend: 0x0, symName: __ZNSt3__118basic_stringstreamIcNS_11char_traitsIcEENS_9allocatorIcEEED2Ev, symObjAddr: 0x3388, symBinAddr: 0x100005D84, symSize: 0x6C }
  - { offsetInCU: 0x1E0D1, offset: 0x1E0D1, size: 0x8, addend: 0x0, symName: __ZThn16_NSt3__118basic_stringstreamIcNS_11char_traitsIcEENS_9allocatorIcEEED1Ev, symObjAddr: 0x33F4, symBinAddr: 0x100005DF0, symSize: 0x1C }
  - { offsetInCU: 0x1E0E8, offset: 0x1E0E8, size: 0x8, addend: 0x0, symName: __ZTv0_n24_NSt3__118basic_stringstreamIcNS_11char_traitsIcEENS_9allocatorIcEEED1Ev, symObjAddr: 0x3410, symBinAddr: 0x100005E0C, symSize: 0x28 }
  - { offsetInCU: 0x1E104, offset: 0x1E104, size: 0x8, addend: 0x0, symName: __ZNSt3__115basic_stringbufIcNS_11char_traitsIcEENS_9allocatorIcEEED1Ev, symObjAddr: 0x3438, symBinAddr: 0x100005E34, symSize: 0x2C }
  - { offsetInCU: 0x1E131, offset: 0x1E131, size: 0x8, addend: 0x0, symName: __ZNSt3__115basic_stringbufIcNS_11char_traitsIcEENS_9allocatorIcEEED2Ev, symObjAddr: 0x3464, symBinAddr: 0x100005E60, symSize: 0x48 }
  - { offsetInCU: 0x1E15E, offset: 0x1E15E, size: 0x8, addend: 0x0, symName: __ZN2sf14RectangleShapeD2Ev, symObjAddr: 0x34AC, symBinAddr: 0x100005EA8, symSize: 0x2C }
  - { offsetInCU: 0x1E18A, offset: 0x1E18A, size: 0x8, addend: 0x0, symName: __ZThn8_N2sf14RectangleShapeD1Ev, symObjAddr: 0x34D8, symBinAddr: 0x100005ED4, symSize: 0x1C }
  - { offsetInCU: 0x1E1A0, offset: 0x1E1A0, size: 0x8, addend: 0x0, symName: __ZN2sf4TextD2Ev, symObjAddr: 0x34F4, symBinAddr: 0x100005EF0, symSize: 0x74 }
  - { offsetInCU: 0x1E1CC, offset: 0x1E1CC, size: 0x8, addend: 0x0, symName: __ZThn8_N2sf4TextD1Ev, symObjAddr: 0x3568, symBinAddr: 0x100005F64, symSize: 0x1C }
  - { offsetInCU: 0x1E1E2, offset: 0x1E1E2, size: 0x8, addend: 0x0, symName: __ZN2sf11VertexArrayD1Ev, symObjAddr: 0x3584, symBinAddr: 0x100005F80, symSize: 0x2C }
  - { offsetInCU: 0x1E20E, offset: 0x1E20E, size: 0x8, addend: 0x0, symName: __ZN2sf11VertexArrayD2Ev, symObjAddr: 0x35B0, symBinAddr: 0x100005FAC, symSize: 0x48 }
  - { offsetInCU: 0x1E23A, offset: 0x1E23A, size: 0x8, addend: 0x0, symName: __ZNSt3__16vectorIN2sf6VertexENS_9allocatorIS2_EEED1B7v160006Ev, symObjAddr: 0x35F8, symBinAddr: 0x100005FF4, symSize: 0x2C }
  - { offsetInCU: 0x1E264, offset: 0x1E264, size: 0x8, addend: 0x0, symName: __ZNSt3__16vectorIN2sf6VertexENS_9allocatorIS2_EEED2B7v160006Ev, symObjAddr: 0x3624, symBinAddr: 0x100006020, symSize: 0x44 }
  - { offsetInCU: 0x1E28E, offset: 0x1E28E, size: 0x8, addend: 0x0, symName: __ZNSt3__16vectorIN2sf6VertexENS_9allocatorIS2_EEE16__destroy_vectorC1ERS5_, symObjAddr: 0x3668, symBinAddr: 0x100006064, symSize: 0x34 }
  - { offsetInCU: 0x1E2C7, offset: 0x1E2C7, size: 0x8, addend: 0x0, symName: __ZNSt3__16vectorIN2sf6VertexENS_9allocatorIS2_EEE16__destroy_vectorclB7v160006Ev, symObjAddr: 0x369C, symBinAddr: 0x100006098, symSize: 0x9C }
  - { offsetInCU: 0x1E2ED, offset: 0x1E2ED, size: 0x8, addend: 0x0, symName: __ZNSt3__16vectorIN2sf6VertexENS_9allocatorIS2_EEE16__destroy_vectorC2ERS5_, symObjAddr: 0x3738, symBinAddr: 0x100006134, symSize: 0x20 }
  - { offsetInCU: 0x1E326, offset: 0x1E326, size: 0x8, addend: 0x0, symName: __ZNKSt3__16vectorIN2sf6VertexENS_9allocatorIS2_EEE17__annotate_deleteB7v160006Ev, symObjAddr: 0x3758, symBinAddr: 0x100006154, symSize: 0xD4 }
  - { offsetInCU: 0x1E34C, offset: 0x1E34C, size: 0x8, addend: 0x0, symName: __ZNSt3__16vectorIN2sf6VertexENS_9allocatorIS2_EEE7__clearB7v160006Ev, symObjAddr: 0x383C, symBinAddr: 0x100006238, symSize: 0x28 }
  - { offsetInCU: 0x1E372, offset: 0x1E372, size: 0x8, addend: 0x0, symName: __ZNSt3__116allocator_traitsINS_9allocatorIN2sf6VertexEEEE10deallocateB7v160006ERS4_PS3_m, symObjAddr: 0x3864, symBinAddr: 0x100006260, symSize: 0x34 }
  - { offsetInCU: 0x1E3B4, offset: 0x1E3B4, size: 0x8, addend: 0x0, symName: __ZNSt3__16vectorIN2sf6VertexENS_9allocatorIS2_EEE7__allocB7v160006Ev, symObjAddr: 0x3898, symBinAddr: 0x100006294, symSize: 0x28 }
  - { offsetInCU: 0x1E3DA, offset: 0x1E3DA, size: 0x8, addend: 0x0, symName: __ZNKSt3__16vectorIN2sf6VertexENS_9allocatorIS2_EEE8capacityB7v160006Ev, symObjAddr: 0x38C0, symBinAddr: 0x1000062BC, symSize: 0x40 }
  - { offsetInCU: 0x1E400, offset: 0x1E400, size: 0x8, addend: 0x0, symName: __ZNKSt3__16vectorIN2sf6VertexENS_9allocatorIS2_EEE31__annotate_contiguous_containerB7v160006EPKvS7_S7_S7_, symObjAddr: 0x3900, symBinAddr: 0x1000062FC, symSize: 0x20 }
  - { offsetInCU: 0x1E456, offset: 0x1E456, size: 0x8, addend: 0x0, symName: __ZNKSt3__16vectorIN2sf6VertexENS_9allocatorIS2_EEE4dataB7v160006Ev, symObjAddr: 0x3920, symBinAddr: 0x10000631C, symSize: 0x28 }
  - { offsetInCU: 0x1E47C, offset: 0x1E47C, size: 0x8, addend: 0x0, symName: __ZNKSt3__16vectorIN2sf6VertexENS_9allocatorIS2_EEE4sizeB7v160006Ev, symObjAddr: 0x3948, symBinAddr: 0x100006344, symSize: 0x28 }
  - { offsetInCU: 0x1E4A2, offset: 0x1E4A2, size: 0x8, addend: 0x0, symName: __ZNSt3__16vectorIN2sf6VertexENS_9allocatorIS2_EEE22__base_destruct_at_endB7v160006EPS2_, symObjAddr: 0x3984, symBinAddr: 0x100006380, symSize: 0x8C }
  - { offsetInCU: 0x1E4E6, offset: 0x1E4E6, size: 0x8, addend: 0x0, symName: __ZNSt3__116allocator_traitsINS_9allocatorIN2sf6VertexEEEE7destroyB7v160006IS3_vvEEvRS4_PT_, symObjAddr: 0x3A10, symBinAddr: 0x10000640C, symSize: 0x28 }
  - { offsetInCU: 0x1E521, offset: 0x1E521, size: 0x8, addend: 0x0, symName: __ZNSt3__19allocatorIN2sf6VertexEE10deallocateB7v160006EPS2_m, symObjAddr: 0x3A6C, symBinAddr: 0x100006468, symSize: 0x44 }
  - { offsetInCU: 0x1E563, offset: 0x1E563, size: 0x8, addend: 0x0, symName: __ZNSt3__117__compressed_pairIPN2sf6VertexENS_9allocatorIS2_EEE6secondB7v160006Ev, symObjAddr: 0x3AB0, symBinAddr: 0x1000064AC, symSize: 0x24 }
  - { offsetInCU: 0x1E589, offset: 0x1E589, size: 0x8, addend: 0x0, symName: __ZNSt3__122__compressed_pair_elemINS_9allocatorIN2sf6VertexEEELi1ELb1EE5__getB7v160006Ev, symObjAddr: 0x3AD4, symBinAddr: 0x1000064D0, symSize: 0x14 }
  - { offsetInCU: 0x1E5AF, offset: 0x1E5AF, size: 0x8, addend: 0x0, symName: __ZNKSt3__16vectorIN2sf6VertexENS_9allocatorIS2_EEE9__end_capB7v160006Ev, symObjAddr: 0x3AE8, symBinAddr: 0x1000064E4, symSize: 0x28 }
  - { offsetInCU: 0x1E5D5, offset: 0x1E5D5, size: 0x8, addend: 0x0, symName: __ZNKSt3__117__compressed_pairIPN2sf6VertexENS_9allocatorIS2_EEE5firstB7v160006Ev, symObjAddr: 0x3B10, symBinAddr: 0x10000650C, symSize: 0x24 }
  - { offsetInCU: 0x1E5FB, offset: 0x1E5FB, size: 0x8, addend: 0x0, symName: __ZNKSt3__122__compressed_pair_elemIPN2sf6VertexELi0ELb0EE5__getB7v160006Ev, symObjAddr: 0x3B34, symBinAddr: 0x100006530, symSize: 0x14 }
  - { offsetInCU: 0x1E621, offset: 0x1E621, size: 0x8, addend: 0x0, symName: __ZN2sf4RectIiEC2Ev, symObjAddr: 0x3B48, symBinAddr: 0x100006544, symSize: 0x24 }
  - { offsetInCU: 0x1E64D, offset: 0x1E64D, size: 0x8, addend: 0x0, symName: __ZN2sf7Vector2IfEC2Eff, symObjAddr: 0x3B6C, symBinAddr: 0x100006568, symSize: 0x2C }
  - { offsetInCU: 0x1E695, offset: 0x1E695, size: 0x8, addend: 0x0, symName: __ZNSt3__19basic_iosIcNS_11char_traitsIcEEEC2B7v160006Ev, symObjAddr: 0x3B98, symBinAddr: 0x100006594, symSize: 0x44 }
  - { offsetInCU: 0x1E6BF, offset: 0x1E6BF, size: 0x8, addend: 0x0, symName: __ZNSt3__114basic_iostreamIcNS_11char_traitsIcEEEC2B7v160006EPNS_15basic_streambufIcS2_EE, symObjAddr: 0x3BDC, symBinAddr: 0x1000065D8, symSize: 0xAC }
  - { offsetInCU: 0x1E705, offset: 0x1E705, size: 0x8, addend: 0x0, symName: __ZNSt3__115basic_stringbufIcNS_11char_traitsIcEENS_9allocatorIcEEEC1B7v160006Ej, symObjAddr: 0x3C88, symBinAddr: 0x100006684, symSize: 0x34 }
  - { offsetInCU: 0x1E73D, offset: 0x1E73D, size: 0x8, addend: 0x0, symName: __ZNSt3__18ios_baseC2B7v160006Ev, symObjAddr: 0x3CBC, symBinAddr: 0x1000066B8, symSize: 0x24 }
  - { offsetInCU: 0x1E767, offset: 0x1E767, size: 0x8, addend: 0x0, symName: __ZNSt3__113basic_istreamIcNS_11char_traitsIcEEEC2B7v160006EPNS_15basic_streambufIcS2_EE, symObjAddr: 0x3CE0, symBinAddr: 0x1000066DC, symSize: 0x64 }
  - { offsetInCU: 0x1E7AC, offset: 0x1E7AC, size: 0x8, addend: 0x0, symName: __ZNSt3__113basic_ostreamIcNS_11char_traitsIcEEEC2B7v160006Ev, symObjAddr: 0x3D44, symBinAddr: 0x100006740, symSize: 0x34 }
  - { offsetInCU: 0x1E7E3, offset: 0x1E7E3, size: 0x8, addend: 0x0, symName: __ZNSt3__19basic_iosIcNS_11char_traitsIcEEE4initB7v160006EPNS_15basic_streambufIcS2_EE, symObjAddr: 0x3D78, symBinAddr: 0x100006774, symSize: 0x44 }
  - { offsetInCU: 0x1E81A, offset: 0x1E81A, size: 0x8, addend: 0x0, symName: __ZNSt3__111char_traitsIcE3eofEv, symObjAddr: 0x3DBC, symBinAddr: 0x1000067B8, symSize: 0x8 }
  - { offsetInCU: 0x1E82E, offset: 0x1E82E, size: 0x8, addend: 0x0, symName: __ZNSt3__115basic_stringbufIcNS_11char_traitsIcEENS_9allocatorIcEEEC2B7v160006Ej, symObjAddr: 0x3DC4, symBinAddr: 0x1000067C0, symSize: 0x60 }
  - { offsetInCU: 0x1E866, offset: 0x1E866, size: 0x8, addend: 0x0, symName: __ZNSt3__112basic_stringIcNS_11char_traitsIcEENS_9allocatorIcEEEC1B7v160006Ev, symObjAddr: 0x3E24, symBinAddr: 0x100006820, symSize: 0x2C }
  - { offsetInCU: 0x1E890, offset: 0x1E890, size: 0x8, addend: 0x0, symName: __ZNSt3__112basic_stringIcNS_11char_traitsIcEENS_9allocatorIcEEEC2B7v160006Ev, symObjAddr: 0x3E50, symBinAddr: 0x10000684C, symSize: 0x50 }
  - { offsetInCU: 0x1E8BA, offset: 0x1E8BA, size: 0x8, addend: 0x0, symName: __ZNSt3__112basic_stringIcNS_11char_traitsIcEENS_9allocatorIcEEE14__default_initB7v160006Ev, symObjAddr: 0x3EA0, symBinAddr: 0x10000689C, symSize: 0x40 }
  - { offsetInCU: 0x1E8E0, offset: 0x1E8E0, size: 0x8, addend: 0x0, symName: __ZNSt3__117__compressed_pairINS_12basic_stringIcNS_11char_traitsIcEENS_9allocatorIcEEE5__repES5_E5firstB7v160006Ev, symObjAddr: 0x3EE0, symBinAddr: 0x1000068DC, symSize: 0x24 }
  - { offsetInCU: 0x1E906, offset: 0x1E906, size: 0x8, addend: 0x0, symName: __ZNSt3__122__compressed_pair_elemINS_12basic_stringIcNS_11char_traitsIcEENS_9allocatorIcEEE5__repELi0ELb0EE5__getB7v160006Ev, symObjAddr: 0x3F04, symBinAddr: 0x100006900, symSize: 0x14 }
  - { offsetInCU: 0x1E94A, offset: 0x1E94A, size: 0x8, addend: 0x0, symName: __ZNKSt3__113basic_ostreamIcNS_11char_traitsIcEEE6sentrycvbB7v160006Ev, symObjAddr: 0x4104, symBinAddr: 0x100006B00, symSize: 0x1C }
  - { offsetInCU: 0x1E970, offset: 0x1E970, size: 0x8, addend: 0x0, symName: __ZNSt3__119ostreambuf_iteratorIcNS_11char_traitsIcEEEC1B7v160006ERNS_13basic_ostreamIcS2_EE, symObjAddr: 0x4360, symBinAddr: 0x100006D5C, symSize: 0x34 }
  - { offsetInCU: 0x1E9A8, offset: 0x1E9A8, size: 0x8, addend: 0x0, symName: __ZNKSt3__18ios_base5flagsB7v160006Ev, symObjAddr: 0x4394, symBinAddr: 0x100006D90, symSize: 0x18 }
  - { offsetInCU: 0x1E9D0, offset: 0x1E9D0, size: 0x8, addend: 0x0, symName: __ZNKSt3__19basic_iosIcNS_11char_traitsIcEEE4fillB7v160006Ev, symObjAddr: 0x43AC, symBinAddr: 0x100006DA8, symSize: 0x64 }
  - { offsetInCU: 0x1E9F8, offset: 0x1E9F8, size: 0x8, addend: 0x0, symName: __ZNKSt3__119ostreambuf_iteratorIcNS_11char_traitsIcEEE6failedB7v160006Ev, symObjAddr: 0x4410, symBinAddr: 0x100006E0C, symSize: 0x24 }
  - { offsetInCU: 0x1EA1E, offset: 0x1EA1E, size: 0x8, addend: 0x0, symName: __ZNSt3__19basic_iosIcNS_11char_traitsIcEEE8setstateB7v160006Ej, symObjAddr: 0x4434, symBinAddr: 0x100006E30, symSize: 0x2C }
  - { offsetInCU: 0x1EA53, offset: 0x1EA53, size: 0x8, addend: 0x0, symName: __ZNKSt3__18ios_base5widthB7v160006Ev, symObjAddr: 0x4460, symBinAddr: 0x100006E5C, symSize: 0x18 }
  - { offsetInCU: 0x1EA7B, offset: 0x1EA7B, size: 0x8, addend: 0x0, symName: __ZNSt3__115basic_streambufIcNS_11char_traitsIcEEE5sputnB7v160006EPKcl, symObjAddr: 0x4478, symBinAddr: 0x100006E74, symSize: 0x3C }
  - { offsetInCU: 0x1EABD, offset: 0x1EABD, size: 0x8, addend: 0x0, symName: __ZNSt3__112basic_stringIcNS_11char_traitsIcEENS_9allocatorIcEEEC1B7v160006Emc, symObjAddr: 0x44B4, symBinAddr: 0x100006EB0, symSize: 0x3C }
  - { offsetInCU: 0x1EB05, offset: 0x1EB05, size: 0x8, addend: 0x0, symName: __ZNSt3__112basic_stringIcNS_11char_traitsIcEENS_9allocatorIcEEE4dataB7v160006Ev, symObjAddr: 0x44F0, symBinAddr: 0x100006EEC, symSize: 0x28 }
  - { offsetInCU: 0x1EB2B, offset: 0x1EB2B, size: 0x8, addend: 0x0, symName: __ZNSt3__18ios_base5widthB7v160006El, symObjAddr: 0x4518, symBinAddr: 0x100006F14, symSize: 0x2C }
  - { offsetInCU: 0x1EB71, offset: 0x1EB71, size: 0x8, addend: 0x0, symName: __ZNSt3__112basic_stringIcNS_11char_traitsIcEENS_9allocatorIcEEEC2B7v160006Emc, symObjAddr: 0x4544, symBinAddr: 0x100006F40, symSize: 0x54 }
  - { offsetInCU: 0x1EBB9, offset: 0x1EBB9, size: 0x8, addend: 0x0, symName: __ZNSt3__112basic_stringIcNS_11char_traitsIcEENS_9allocatorIcEEE13__get_pointerB7v160006Ev, symObjAddr: 0x45AC, symBinAddr: 0x100006FA8, symSize: 0x54 }
  - { offsetInCU: 0x1EBDF, offset: 0x1EBDF, size: 0x8, addend: 0x0, symName: __ZNKSt3__112basic_stringIcNS_11char_traitsIcEENS_9allocatorIcEEE9__is_longB7v160006Ev, symObjAddr: 0x4600, symBinAddr: 0x100006FFC, symSize: 0x38 }
  - { offsetInCU: 0x1EC05, offset: 0x1EC05, size: 0x8, addend: 0x0, symName: __ZNSt3__112basic_stringIcNS_11char_traitsIcEENS_9allocatorIcEEE18__get_long_pointerB7v160006Ev, symObjAddr: 0x4638, symBinAddr: 0x100007034, symSize: 0x28 }
  - { offsetInCU: 0x1EC2B, offset: 0x1EC2B, size: 0x8, addend: 0x0, symName: __ZNSt3__112basic_stringIcNS_11char_traitsIcEENS_9allocatorIcEEE19__get_short_pointerB7v160006Ev, symObjAddr: 0x4660, symBinAddr: 0x10000705C, symSize: 0x28 }
  - { offsetInCU: 0x1EC51, offset: 0x1EC51, size: 0x8, addend: 0x0, symName: __ZNKSt3__117__compressed_pairINS_12basic_stringIcNS_11char_traitsIcEENS_9allocatorIcEEE5__repES5_E5firstB7v160006Ev, symObjAddr: 0x4688, symBinAddr: 0x100007084, symSize: 0x24 }
  - { offsetInCU: 0x1EC77, offset: 0x1EC77, size: 0x8, addend: 0x0, symName: __ZNKSt3__122__compressed_pair_elemINS_12basic_stringIcNS_11char_traitsIcEENS_9allocatorIcEEE5__repELi0ELb0EE5__getB7v160006Ev, symObjAddr: 0x46AC, symBinAddr: 0x1000070A8, symSize: 0x14 }
  - { offsetInCU: 0x1EC9D, offset: 0x1EC9D, size: 0x8, addend: 0x0, symName: __ZNSt3__114pointer_traitsIPcE10pointer_toB7v160006ERc, symObjAddr: 0x46C0, symBinAddr: 0x1000070BC, symSize: 0x14 }
  - { offsetInCU: 0x1ECC0, offset: 0x1ECC0, size: 0x8, addend: 0x0, symName: __ZNSt3__119ostreambuf_iteratorIcNS_11char_traitsIcEEEC2B7v160006ERNS_13basic_ostreamIcS2_EE, symObjAddr: 0x46D4, symBinAddr: 0x1000070D0, symSize: 0x54 }
  - { offsetInCU: 0x1ECF8, offset: 0x1ECF8, size: 0x8, addend: 0x0, symName: __ZNKSt3__19basic_iosIcNS_11char_traitsIcEEE5rdbufB7v160006Ev, symObjAddr: 0x4728, symBinAddr: 0x100007124, symSize: 0x24 }
  - { offsetInCU: 0x1ED20, offset: 0x1ED20, size: 0x8, addend: 0x0, symName: __ZNKSt3__18ios_base5rdbufB7v160006Ev, symObjAddr: 0x474C, symBinAddr: 0x100007148, symSize: 0x18 }
  - { offsetInCU: 0x1ED46, offset: 0x1ED46, size: 0x8, addend: 0x0, symName: __ZNSt3__111char_traitsIcE11eq_int_typeEii, symObjAddr: 0x4764, symBinAddr: 0x100007160, symSize: 0x28 }
  - { offsetInCU: 0x1ED77, offset: 0x1ED77, size: 0x8, addend: 0x0, symName: __ZNKSt3__19basic_iosIcNS_11char_traitsIcEEE5widenB7v160006Ec, symObjAddr: 0x478C, symBinAddr: 0x100007188, symSize: 0x84 }
  - { offsetInCU: 0x1EDE0, offset: 0x1EDE0, size: 0x8, addend: 0x0, symName: __ZNKSt3__15ctypeIcE5widenB7v160006Ec, symObjAddr: 0x483C, symBinAddr: 0x100007238, symSize: 0x38 }
  - { offsetInCU: 0x1EE15, offset: 0x1EE15, size: 0x8, addend: 0x0, symName: __ZNSt3__18ios_base8setstateB7v160006Ej, symObjAddr: 0x4874, symBinAddr: 0x100007270, symSize: 0x34 }
...
